	.file	"program.c"
	.text
	.def	___main;	.scl	2;	.type	32;	.endef
	.section .rdata,"dr"
LC0:
	.ascii "Enter first number: \0"
LC1:
	.ascii "%d\0"
LC2:
	.ascii "Enter second number: \0"
	.align 4
LC3:
	.ascii "Before swap: Num1 = %d, Num2 = %d\12\0"
	.align 4
LC4:
	.ascii "After swap: Num1 = %d, Num2 = %d\12\0"
	.text
	.globl	_main
	.def	_main;	.scl	2;	.type	32;	.endef
_main:
LFB13:
	.cfi_startproc
	pushl	%ebp
	.cfi_def_cfa_offset 8
	.cfi_offset 5, -8
	movl	%esp, %ebp
	.cfi_def_cfa_register 5
	andl	$-16, %esp
	subl	$32, %esp
	call	___main
	movl	$LC0, (%esp)
	call	_printf
	leal	28(%esp), %eax
	movl	%eax, 4(%esp)
	movl	$LC1, (%esp)
	call	_scanf
	movl	$LC2, (%esp)
	call	_printf
	leal	24(%esp), %eax
	movl	%eax, 4(%esp)
	movl	$LC1, (%esp)
	call	_scanf
	movl	24(%esp), %edx
	movl	28(%esp), %eax
	movl	%edx, 8(%esp)
	movl	%eax, 4(%esp)
	movl	$LC3, (%esp)
	call	_printf
	leal	24(%esp), %eax
	movl	%eax, 4(%esp)
	leal	28(%esp), %eax
	movl	%eax, (%esp)
	call	_swap
	movl	24(%esp), %edx
	movl	28(%esp), %eax
	movl	%edx, 8(%esp)
	movl	%eax, 4(%esp)
	movl	$LC4, (%esp)
	call	_printf
	movl	$0, %eax
	leave
	.cfi_restore 5
	.cfi_def_cfa 4, 4
	ret
	.cfi_endproc
LFE13:
	.ident	"GCC: (i686-win32-dwarf-rev0, Built by MinGW-W64 project) 8.1.0"
	.def	_printf;	.scl	2;	.type	32;	.endef
	.def	_scanf;	.scl	2;	.type	32;	.endef
	.def	_swap;	.scl	2;	.type	32;	.endef
